target datalayout = "e-m:e-p270:32:32-p271:32:32-p272:64:64-i64:64-i128:128-f80:128-n8:16:32:64-S128"
target triple = "x86_64-pc-linux-gnu"

%struct.evthread_lock_callbacks = type { i32, i32, ptr, ptr, ptr, ptr }
%struct.bufferevent_private = type { %struct.bufferevent, ptr, i8, i16, i16, i16, i32, i32, %struct.event_callback, i32, i32, ptr, i64, i64, ptr, %union.anon.7, ptr }
%struct.bufferevent = type { ptr, ptr, %struct.event, %struct.event, ptr, ptr, %struct.event_watermark, %struct.event_watermark, ptr, ptr, ptr, ptr, %struct.timeval, %struct.timeval, i16 }
%struct.event = type { %struct.event_callback, %union.anon.0, i32, i16, i16, ptr, %union.anon.2, %struct.timeval }
%union.anon.0 = type { %struct.anon.1 }
%struct.anon.1 = type { ptr, ptr }
%union.anon.2 = type { %struct.anon.3 }
%struct.anon.3 = type { %struct.anon.4, %struct.timeval }
%struct.anon.4 = type { ptr, ptr }
%struct.event_watermark = type { i64, i64 }
%struct.timeval = type { i64, i64 }
%struct.event_callback = type { %struct.anon, i16, i8, i8, %union.anon, ptr }
%struct.anon = type { ptr, ptr }
%union.anon = type { ptr }
%union.anon.7 = type { %struct.sockaddr_in6 }
%struct.sockaddr_in6 = type { i16, i16, i32, %struct.in6_addr, i32 }
%struct.in6_addr = type { %union.anon.8 }
%union.anon.8 = type { [4 x i32] }
%struct.bufferevent_ops = type { ptr, i64, ptr, ptr, ptr, ptr, ptr, ptr, ptr }

@evthread_lock_fns_ = external global %struct.evthread_lock_callbacks, align 8
@event_debug_logging_mask_ = external global i32, align 4
@.str.1 = private unnamed_addr constant [30 x i8] c"%s: cannot enable 0x%hx on %p\00", align 1
@__func__.bufferevent_enable = private unnamed_addr constant [19 x i8] c"bufferevent_enable\00", align 1

; Function Attrs: nounwind uwtable
define void @bufferevent_incref_and_lock_(ptr noundef %0) #0 {
  %2 = alloca ptr, align 8
  %3 = alloca ptr, align 8
  %4 = alloca ptr, align 8
  store ptr %0, ptr %2, align 8
  call void @llvm.lifetime.start.p0(i64 8, ptr %3) #7
  %5 = load ptr, ptr %2, align 8
  %6 = getelementptr inbounds i8, ptr %5, i64 0
  store ptr %6, ptr %3, align 8
  br label %7

7:                                                ; preds = %1
  call void @llvm.lifetime.start.p0(i64 8, ptr %4) #7
  %8 = load ptr, ptr %2, align 8
  %9 = getelementptr inbounds i8, ptr %8, i64 0
  store ptr %9, ptr %4, align 8
  br label %10

10:                                               ; preds = %7
  %11 = load ptr, ptr %4, align 8
  %12 = getelementptr inbounds nuw %struct.bufferevent_private, ptr %11, i32 0, i32 11
  %13 = load ptr, ptr %12, align 8
  %14 = icmp ne ptr %13, null
  br i1 %14, label %15, label %21

15:                                               ; preds = %10
  %16 = load ptr, ptr getelementptr inbounds nuw (%struct.evthread_lock_callbacks, ptr @evthread_lock_fns_, i32 0, i32 4), align 8
  %17 = load ptr, ptr %4, align 8
  %18 = getelementptr inbounds nuw %struct.bufferevent_private, ptr %17, i32 0, i32 11
  %19 = load ptr, ptr %18, align 8
  %20 = call i32 %16(i32 noundef 0, ptr noundef %19)
  br label %21

21:                                               ; preds = %15, %10
  br label %22

22:                                               ; preds = %21
  br label %23

23:                                               ; preds = %22
  call void @llvm.lifetime.end.p0(i64 8, ptr %4) #7
  br label %24

24:                                               ; preds = %23
  br label %25

25:                                               ; preds = %24
  %26 = load ptr, ptr %3, align 8
  %27 = getelementptr inbounds nuw %struct.bufferevent_private, ptr %26, i32 0, i32 10
  %28 = load i32, ptr %27, align 4
  %29 = add nsw i32 %28, 1
  store i32 %29, ptr %27, align 4
  call void @llvm.lifetime.end.p0(i64 8, ptr %3) #7
  ret void
}

; Function Attrs: nounwind uwtable
define i32 @bufferevent_enable(ptr noundef %0, i16 noundef signext %1) #0 {
  %3 = alloca ptr, align 8
  %4 = alloca i16, align 2
  %5 = alloca ptr, align 8
  %6 = alloca i16, align 2
  %7 = alloca i32, align 4
  store ptr %0, ptr %3, align 8
  store i16 %1, ptr %4, align 2
  call void @llvm.lifetime.start.p0(i64 8, ptr %5) #7
  %8 = load ptr, ptr %3, align 8
  %9 = getelementptr inbounds i8, ptr %8, i64 0
  store ptr %9, ptr %5, align 8
  call void @llvm.lifetime.start.p0(i64 2, ptr %6) #7
  %10 = load i16, ptr %4, align 2
  store i16 %10, ptr %6, align 2
  call void @llvm.lifetime.start.p0(i64 4, ptr %7) #7
  store i32 0, ptr %7, align 4
  %11 = load ptr, ptr %3, align 8
  call void @bufferevent_incref_and_lock_(ptr noundef %11)
  %12 = load ptr, ptr %5, align 8
  %13 = getelementptr inbounds nuw %struct.bufferevent_private, ptr %12, i32 0, i32 4
  %14 = load i16, ptr %13, align 4
  %15 = icmp ne i16 %14, 0
  br i1 %15, label %16, label %21

16:                                               ; preds = %2
  %17 = load i16, ptr %6, align 2
  %18 = sext i16 %17 to i32
  %19 = and i32 %18, -3
  %20 = trunc i32 %19 to i16
  store i16 %20, ptr %6, align 2
  br label %21

21:                                               ; preds = %16, %2
  %22 = load ptr, ptr %5, align 8
  %23 = getelementptr inbounds nuw %struct.bufferevent_private, ptr %22, i32 0, i32 5
  %24 = load i16, ptr %23, align 2
  %25 = icmp ne i16 %24, 0
  br i1 %25, label %26, label %31

26:                                               ; preds = %21
  %27 = load i16, ptr %6, align 2
  %28 = sext i16 %27 to i32
  %29 = and i32 %28, -5
  %30 = trunc i32 %29 to i16
  store i16 %30, ptr %6, align 2
  br label %31

31:                                               ; preds = %26, %21
  %32 = load i16, ptr %4, align 2
  %33 = sext i16 %32 to i32
  %34 = load ptr, ptr %3, align 8
  %35 = getelementptr inbounds nuw %struct.bufferevent, ptr %34, i32 0, i32 14
  %36 = load i16, ptr %35, align 8
  %37 = sext i16 %36 to i32
  %38 = or i32 %37, %33
  %39 = trunc i32 %38 to i16
  store i16 %39, ptr %35, align 8
  %40 = load i16, ptr %6, align 2
  %41 = sext i16 %40 to i32
  %42 = icmp ne i32 %41, 0
  br i1 %42, label %43, label %54

43:                                               ; preds = %31
  %44 = load ptr, ptr %3, align 8
  %45 = getelementptr inbounds nuw %struct.bufferevent, ptr %44, i32 0, i32 1
  %46 = load ptr, ptr %45, align 8
  %47 = getelementptr inbounds nuw %struct.bufferevent_ops, ptr %46, i32 0, i32 2
  %48 = load ptr, ptr %47, align 8
  %49 = load ptr, ptr %3, align 8
  %50 = load i16, ptr %6, align 2
  %51 = call i32 %48(ptr noundef %49, i16 noundef signext %50)
  %52 = icmp slt i32 %51, 0
  br i1 %52, label %53, label %54

53:                                               ; preds = %43
  store i32 -1, ptr %7, align 4
  br label %54

54:                                               ; preds = %53, %43, %31
  %55 = load i32, ptr %7, align 4
  %56 = icmp ne i32 %55, 0
  br i1 %56, label %57, label %68

57:                                               ; preds = %54
  br label %58

58:                                               ; preds = %57
  %59 = load i32, ptr @event_debug_logging_mask_, align 4
  %60 = icmp ne i32 %59, 0
  br i1 %60, label %61, label %65

61:                                               ; preds = %58
  %62 = load i16, ptr %4, align 2
  %63 = sext i16 %62 to i32
  %64 = load ptr, ptr %3, align 8
  call void (ptr, ...) @event_debugx_(ptr noundef @.str.1, ptr noundef @__func__.bufferevent_enable, i32 noundef %63, ptr noundef %64)
  br label %65

65:                                               ; preds = %61, %58
  br label %66

66:                                               ; preds = %65
  br label %67

67:                                               ; preds = %66
  br label %68

68:                                               ; preds = %67, %54
  %69 = load ptr, ptr %3, align 8
  %70 = call i32 @bufferevent_decref_and_unlock_(ptr noundef %69)
  %71 = load i32, ptr %7, align 4
  call void @llvm.lifetime.end.p0(i64 4, ptr %7) #7
  call void @llvm.lifetime.end.p0(i64 2, ptr %6) #7
  call void @llvm.lifetime.end.p0(i64 8, ptr %5) #7
  ret i32 %71
}