; Function Attrs: nounwind uwtable
define range(i32 -1, 1) i32 @bufferevent_enable(ptr noundef %0, i16 noundef signext %1) local_unnamed_addr #0 {
  %3 = getelementptr inbounds nuw i8, ptr %0, i64 448
  %4 = load ptr, ptr %3, align 8
  %.not.i = icmp eq ptr %4, null
  br i1 %.not.i, label %bufferevent_incref_and_lock_.exit, label %5

5:                                                ; preds = %2
  %6 = load ptr, ptr getelementptr inbounds nuw (i8, ptr @evthread_lock_fns_, i64 24), align 8
  %7 = tail call i32 %6(i32 noundef 0, ptr noundef nonnull %4) #7
  br label %bufferevent_incref_and_lock_.exit

bufferevent_incref_and_lock_.exit:                ; preds = %2, %5
  %8 = getelementptr inbounds nuw i8, ptr %0, i64 444
  %9 = load i32, ptr %8, align 4
  %10 = add nsw i32 %9, 1
  store i32 %10, ptr %8, align 4
  %11 = getelementptr inbounds nuw i8, ptr %0, i64 388
  %12 = load i16, ptr %11, align 4
  %.not = icmp eq i16 %12, 0
  %13 = and i16 %1, -3
  %spec.select = select i1 %.not, i16 %1, i16 %13
  %14 = getelementptr inbounds nuw i8, ptr %0, i64 390
  %15 = load i16, ptr %14, align 2
  %.not19 = icmp eq i16 %15, 0
  %16 = and i16 %spec.select, -5
  %.1 = select i1 %.not19, i16 %spec.select, i16 %16
  %17 = sext i16 %1 to i32
  %18 = getelementptr inbounds nuw i8, ptr %0, i64 368
  %19 = load i16, ptr %18, align 8
  %20 = or i16 %19, %1
  store i16 %20, ptr %18, align 8
  %.not20 = icmp eq i16 %.1, 0
  br i1 %.not20, label %.thread, label %21

21:                                               ; preds = %bufferevent_incref_and_lock_.exit
  %22 = getelementptr inbounds nuw i8, ptr %0, i64 8
  %23 = load ptr, ptr %22, align 8
  %24 = getelementptr inbounds nuw i8, ptr %23, i64 16
  %25 = load ptr, ptr %24, align 8
  %26 = tail call i32 %25(ptr noundef nonnull %0, i16 noundef signext %.1) #7
  %27 = icmp slt i32 %26, 0
  %.lobit = ashr i32 %26, 31
  %28 = load i32, ptr @event_debug_logging_mask_, align 4
  %29 = icmp ne i32 %28, 0
  %or.cond = select i1 %27, i1 %29, i1 false
  br i1 %or.cond, label %30, label %.thread

30:                                               ; preds = %21
  tail call void (ptr, ...) @event_debugx_(ptr noundef nonnull @.str.1, ptr noundef nonnull @__func__.bufferevent_enable, i32 noundef %17, ptr noundef nonnull %0) #7
  br label %.thread

.thread:                                          ; preds = %bufferevent_incref_and_lock_.exit, %30, %21
  %.025 = phi i32 [ %.lobit, %30 ], [ %.lobit, %21 ], [ 0, %bufferevent_incref_and_lock_.exit ]
  %31 = tail call i32 @bufferevent_decref_and_unlock_(ptr noundef nonnull %0)
  ret i32 %.025
}